target datalayout = "e-m:e-p270:32:32-p271:32:32-p272:64:64-i64:64-i128:128-f80:128-n8:16:32:64-S128"
target triple = "x86_64-pc-linux-gnu"

; Function Attrs: mustprogress nounwind uwtable
define dso_local noundef zeroext i1 @_ZN4llvm15OpenMPIRBuilder28checkAndEmitFlushAfterAtomicERKNS0_19LocationDescriptionENS_14AtomicOrderingENS0_10AtomicKindE(ptr noundef nonnull align 8 dereferenceable(3104) %0, ptr noundef nonnull align 8 dereferenceable(32) %1, i32 noundef %2, i32 noundef %3) #1 align 2 {
  %5 = alloca ptr, align 8
  %6 = alloca ptr, align 8
  %7 = alloca i32, align 4
  %8 = alloca i32, align 4
  %9 = alloca i8, align 1
  %10 = alloca i32, align 4
  store ptr %0, ptr %5, align 8
  store ptr %1, ptr %6, align 8
  store i32 %2, ptr %7, align 4
  store i32 %3, ptr %8, align 4
  %11 = load ptr, ptr %5, align 8
  store i8 0, ptr %9, align 1
  store i32 2, ptr %10, align 4
  %12 = load i32, ptr %8, align 4
  switch i32 %12, label %42 [
    i32 0, label %13
    i32 1, label %24
    i32 4, label %24
    i32 2, label %24
    i32 3, label %35
  ]

13:                                               ; preds = %4
  %14 = load i32, ptr %7, align 4
  %15 = icmp eq i32 %14, 4
  br i1 %15, label %22, label %16

16:                                               ; preds = %13
  %17 = load i32, ptr %7, align 4
  %18 = icmp eq i32 %17, 6
  br i1 %18, label %22, label %19

19:                                               ; preds = %16
  %20 = load i32, ptr %7, align 4
  %21 = icmp eq i32 %20, 7
  br i1 %21, label %22, label %23

22:                                               ; preds = %19, %16, %13
  store i32 4, ptr %10, align 4
  store i8 1, ptr %9, align 1
  br label %23

23:                                               ; preds = %22, %19
  br label %42

24:                                               ; preds = %4, %4, %4
  %25 = load i32, ptr %7, align 4
  %26 = icmp eq i32 %25, 5
  br i1 %26, label %33, label %27

27:                                               ; preds = %24
  %28 = load i32, ptr %7, align 4
  %29 = icmp eq i32 %28, 6
  br i1 %29, label %33, label %30

30:                                               ; preds = %27
  %31 = load i32, ptr %7, align 4
  %32 = icmp eq i32 %31, 7
  br i1 %32, label %33, label %34

33:                                               ; preds = %30, %27, %24
  store i32 5, ptr %10, align 4
  store i8 1, ptr %9, align 1
  br label %34

34:                                               ; preds = %33, %30
  br label %42

35:                                               ; preds = %4
  %36 = load i32, ptr %7, align 4
  switch i32 %36, label %40 [
    i32 4, label %37
    i32 5, label %38
    i32 6, label %39
    i32 7, label %39
  ]

37:                                               ; preds = %35
  store i32 4, ptr %10, align 4
  store i8 1, ptr %9, align 1
  br label %41

38:                                               ; preds = %35
  store i32 5, ptr %10, align 4
  store i8 1, ptr %9, align 1
  br label %41

39:                                               ; preds = %35, %35
  store i32 6, ptr %10, align 4
  store i8 1, ptr %9, align 1
  br label %41

40:                                               ; preds = %35
  br label %41

41:                                               ; preds = %40, %39, %38, %37
  br label %42

42:                                               ; preds = %41, %34, %23, %4
  %43 = load i8, ptr %9, align 1
  %44 = trunc i8 %43 to i1
  br i1 %44, label %45, label %47

45:                                               ; preds = %42
  %46 = load ptr, ptr %6, align 8
  call void @_ZN4llvm15OpenMPIRBuilder9emitFlushERKNS0_19LocationDescriptionE(ptr noundef nonnull align 8 dereferenceable(3104) %11, ptr noundef nonnull align 8 dereferenceable(32) %46)
  br label %47

47:                                               ; preds = %45, %42
  %48 = load i8, ptr %9, align 1
  %49 = trunc i8 %48 to i1
  ret i1 %49
}