; Function Attrs: mustprogress nounwind uwtable
define dso_local noundef zeroext i1 @_ZN4llvm15OpenMPIRBuilder28checkAndEmitFlushAfterAtomicERKNS0_19LocationDescriptionENS_14AtomicOrderingENS0_10AtomicKindE(ptr noundef nonnull align 8 dereferenceable(3104) %0, ptr noundef nonnull readonly align 8 captures(none) dereferenceable(32) %1, i32 noundef %2, i32 noundef %3) local_unnamed_addr #0 align 2 {
  switch i32 %3, label %.thread [
    i32 0, label %5
    i32 1, label %6
    i32 4, label %6
    i32 2, label %6
    i32 3, label %8
  ]

5:                                                ; preds = %4
  switch i32 %2, label %.thread [
    i32 7, label %.thread20
    i32 6, label %.thread20
    i32 4, label %.thread20
  ]

6:                                                ; preds = %4, %4, %4
  %7 = add i32 %2, -5
  %or.cond7 = icmp ult i32 %7, 3
  br i1 %or.cond7, label %.thread20, label %.thread

8:                                                ; preds = %4
  %9 = and i32 %2, -4
  %switch.selectcmp = icmp eq i32 %9, 4
  br i1 %switch.selectcmp, label %.thread20, label %.thread

.thread20:                                        ; preds = %5, %5, %5, %6, %8
  tail call void @_ZN4llvm15OpenMPIRBuilder9emitFlushERKNS0_19LocationDescriptionE(ptr noundef nonnull align 8 dereferenceable(3104) %0, ptr noundef nonnull align 8 dereferenceable(32) %1)
  br label %.thread

.thread:                                          ; preds = %5, %4, %6, %.thread20, %8
  %.019 = phi i1 [ true, %.thread20 ], [ false, %8 ], [ false, %6 ], [ false, %4 ], [ false, %5 ]
  ret i1 %.019
}